	.file	"FunctionCallTest.c"
	.text
	.globl	main
	.type	main, @function
main:
.LFB0:
	.cfi_startproc
	pushq	%rbp
	.cfi_def_cfa_offset 16
	.cfi_offset 6, -16
	movq	%rsp, %rbp
	.cfi_def_cfa_register 6
	subq	$32, %rsp
	movsd	%xmm0, -24(%rbp)
	movl	$0, %eax
	movq	%rax, -8(%rbp)
	movq	-8(%rbp), %rax
	movq	%rax, -32(%rbp)
	movsd	-32(%rbp), %xmm0
	movl	$1, %eax
	call	foo
	leave
	.cfi_def_cfa 7, 8
	ret
	.cfi_endproc
.LFE0:
	.size	main, .-main
	.section	.rodata
.LC1:
	.string	"Printing %d\n"
	.text
	.globl	foo
	.type	foo, @function
foo:
.LFB1:
	.cfi_startproc
	pushq	%rbp
	.cfi_def_cfa_offset 16
	.cfi_offset 6, -16
	movq	%rsp, %rbp
	.cfi_def_cfa_register 6
	subq	$16, %rsp
	movsd	%xmm0, -8(%rbp)
	movq	-8(%rbp), %rax
	movq	%rax, -16(%rbp)
	movsd	-16(%rbp), %xmm0
	movl	$.LC1, %edi
	movl	$1, %eax
	call	printf
	movsd	-8(%rbp), %xmm0
	cvttsd2si	%xmm0, %eax
	leave
	.cfi_def_cfa 7, 8
	ret
	.cfi_endproc
.LFE1:
	.size	foo, .-foo
	.ident	"GCC: (Ubuntu 4.8.4-2ubuntu1~14.04) 4.8.4"
	.section	.note.GNU-stack,"",@progbits
